; Function Attrs: mustprogress uwtable
define hidden range(i32 -102, 1) i32 @mbedtls_asn1_get_alg(ptr noundef captures(none) %0, ptr noundef %1, ptr noundef captures(none) %2, ptr noundef %3) local_unnamed_addr #3 {
  %5 = load ptr, ptr %0, align 8, !tbaa !3
  %6 = ptrtoint ptr %1 to i64
  %7 = ptrtoint ptr %5 to i64
  %8 = sub i64 %6, %7
  %9 = icmp slt i64 %8, 1
  br i1 %9, label %mbedtls_asn1_get_tag.exit.thread, label %10

10:                                               ; preds = %4
  %11 = load i8, ptr %5, align 1, !tbaa !8
  %.not.i = icmp eq i8 %11, 48
  br i1 %.not.i, label %12, label %mbedtls_asn1_get_tag.exit.thread

12:                                               ; preds = %10
  %13 = getelementptr inbounds nuw i8, ptr %5, i64 1
  store ptr %13, ptr %0, align 8, !tbaa !3
  %14 = ptrtoint ptr %13 to i64
  %15 = sub i64 %6, %14
  %16 = icmp slt i64 %15, 1
  br i1 %16, label %mbedtls_asn1_get_tag.exit.thread, label %17

17:                                               ; preds = %12
  %18 = load i8, ptr %13, align 1, !tbaa !8
  %19 = icmp sgt i8 %18, -1
  br i1 %19, label %20, label %24

20:                                               ; preds = %17
  %21 = getelementptr inbounds nuw i8, ptr %5, i64 2
  store ptr %21, ptr %0, align 8, !tbaa !3
  %22 = load i8, ptr %13, align 1, !tbaa !8
  %23 = zext i8 %22 to i64
  br label %84

24:                                               ; preds = %17
  %25 = and i8 %18, 127
  switch i8 %25, label %mbedtls_asn1_get_tag.exit.thread [
    i8 1, label %26
    i8 2, label %33
    i8 3, label %45
    i8 4, label %62
  ]

26:                                               ; preds = %24
  %27 = icmp eq i64 %15, 1
  br i1 %27, label %mbedtls_asn1_get_tag.exit.thread, label %28

28:                                               ; preds = %26
  %29 = getelementptr inbounds nuw i8, ptr %5, i64 2
  %30 = load i8, ptr %29, align 1, !tbaa !8
  %31 = zext i8 %30 to i64
  %32 = getelementptr inbounds nuw i8, ptr %5, i64 3
  store ptr %32, ptr %0, align 8, !tbaa !3
  br label %84

33:                                               ; preds = %24
  %34 = icmp samesign ult i64 %15, 3
  br i1 %34, label %mbedtls_asn1_get_tag.exit.thread, label %35

35:                                               ; preds = %33
  %36 = getelementptr inbounds nuw i8, ptr %5, i64 2
  %37 = load i8, ptr %36, align 1, !tbaa !8
  %38 = zext i8 %37 to i64
  %39 = shl nuw nsw i64 %38, 8
  %40 = getelementptr inbounds nuw i8, ptr %5, i64 3
  %41 = load i8, ptr %40, align 1, !tbaa !8
  %42 = zext i8 %41 to i64
  %43 = or disjoint i64 %39, %42
  %44 = getelementptr inbounds nuw i8, ptr %5, i64 4
  store ptr %44, ptr %0, align 8, !tbaa !3
  br label %84

45:                                               ; preds = %24
  %46 = icmp samesign ult i64 %15, 4
  br i1 %46, label %mbedtls_asn1_get_tag.exit.thread, label %47

47:                                               ; preds = %45
  %48 = getelementptr inbounds nuw i8, ptr %5, i64 2
  %49 = load i8, ptr %48, align 1, !tbaa !8
  %50 = zext i8 %49 to i64
  %51 = shl nuw nsw i64 %50, 16
  %52 = getelementptr inbounds nuw i8, ptr %5, i64 3
  %53 = load i8, ptr %52, align 1, !tbaa !8
  %54 = zext i8 %53 to i64
  %55 = shl nuw nsw i64 %54, 8
  %56 = or disjoint i64 %55, %51
  %57 = getelementptr inbounds nuw i8, ptr %5, i64 4
  %58 = load i8, ptr %57, align 1, !tbaa !8
  %59 = zext i8 %58 to i64
  %60 = or disjoint i64 %56, %59
  %61 = getelementptr inbounds nuw i8, ptr %5, i64 5
  store ptr %61, ptr %0, align 8, !tbaa !3
  br label %84

62:                                               ; preds = %24
  %63 = icmp samesign ult i64 %15, 5
  br i1 %63, label %mbedtls_asn1_get_tag.exit.thread, label %64

64:                                               ; preds = %62
  %65 = getelementptr inbounds nuw i8, ptr %5, i64 2
  %66 = load i8, ptr %65, align 1, !tbaa !8
  %67 = zext i8 %66 to i64
  %68 = shl nuw nsw i64 %67, 24
  %69 = getelementptr inbounds nuw i8, ptr %5, i64 3
  %70 = load i8, ptr %69, align 1, !tbaa !8
  %71 = zext i8 %70 to i64
  %72 = shl nuw nsw i64 %71, 16
  %73 = or disjoint i64 %72, %68
  %74 = getelementptr inbounds nuw i8, ptr %5, i64 4
  %75 = load i8, ptr %74, align 1, !tbaa !8
  %76 = zext i8 %75 to i64
  %77 = shl nuw nsw i64 %76, 8
  %78 = or disjoint i64 %73, %77
  %79 = getelementptr inbounds nuw i8, ptr %5, i64 5
  %80 = load i8, ptr %79, align 1, !tbaa !8
  %81 = zext i8 %80 to i64
  %82 = or disjoint i64 %78, %81
  %83 = getelementptr inbounds nuw i8, ptr %5, i64 6
  store ptr %83, ptr %0, align 8, !tbaa !3
  br label %84

84:                                               ; preds = %64, %47, %35, %28, %20
  %.1 = phi i64 [ %23, %20 ], [ %82, %64 ], [ %60, %47 ], [ %43, %35 ], [ %31, %28 ]
  %85 = phi ptr [ %21, %20 ], [ %83, %64 ], [ %61, %47 ], [ %44, %35 ], [ %32, %28 ]
  %86 = ptrtoint ptr %85 to i64
  %87 = sub i64 %6, %86
  %88 = icmp ugt i64 %.1, %87
  %89 = icmp slt i64 %87, 1
  %or.cond = or i1 %88, %89
  br i1 %or.cond, label %mbedtls_asn1_get_tag.exit.thread, label %90

90:                                               ; preds = %84
  %91 = load i8, ptr %85, align 1, !tbaa !8
  %92 = zext i8 %91 to i32
  store i32 %92, ptr %2, align 8, !tbaa !32
  %93 = getelementptr inbounds nuw i8, ptr %85, i64 %.1
  %94 = getelementptr inbounds nuw i8, ptr %2, i64 8
  %95 = icmp eq i64 %.1, 0
  br i1 %95, label %mbedtls_asn1_get_tag.exit.thread, label %96

96:                                               ; preds = %90
  %97 = load i8, ptr %85, align 1, !tbaa !8
  %.not.i40 = icmp eq i8 %97, 6
  br i1 %.not.i40, label %mbedtls_asn1_get_tag.exit42, label %mbedtls_asn1_get_tag.exit.thread

mbedtls_asn1_get_tag.exit42:                      ; preds = %96
  %98 = getelementptr inbounds nuw i8, ptr %85, i64 1
  store ptr %98, ptr %0, align 8, !tbaa !3
  %99 = tail call i32 @mbedtls_asn1_get_len(ptr noundef nonnull %0, ptr noundef nonnull %93, ptr noundef nonnull %94)
  %.not37 = icmp eq i32 %99, 0
  br i1 %.not37, label %100, label %mbedtls_asn1_get_tag.exit.thread

100:                                              ; preds = %mbedtls_asn1_get_tag.exit42
  %101 = load ptr, ptr %0, align 8, !tbaa !3
  %102 = getelementptr inbounds nuw i8, ptr %2, i64 16
  store ptr %101, ptr %102, align 8, !tbaa !33
  %103 = load i64, ptr %94, align 8, !tbaa !34
  %104 = getelementptr inbounds nuw i8, ptr %101, i64 %103
  store ptr %104, ptr %0, align 8, !tbaa !3
  %105 = icmp eq ptr %104, %93
  br i1 %105, label %106, label %107

106:                                              ; preds = %100
  tail call void @mbedtls_platform_zeroize(ptr noundef %3, i64 noundef 24)
  br label %mbedtls_asn1_get_tag.exit.thread

107:                                              ; preds = %100
  %108 = load i8, ptr %104, align 1, !tbaa !8
  %109 = zext i8 %108 to i32
  store i32 %109, ptr %3, align 8, !tbaa !32
  %110 = getelementptr inbounds nuw i8, ptr %104, i64 1
  store ptr %110, ptr %0, align 8, !tbaa !3
  %111 = getelementptr inbounds nuw i8, ptr %3, i64 8
  %112 = tail call i32 @mbedtls_asn1_get_len(ptr noundef nonnull %0, ptr noundef nonnull %93, ptr noundef nonnull %111)
  %.not38 = icmp eq i32 %112, 0
  br i1 %.not38, label %113, label %mbedtls_asn1_get_tag.exit.thread

113:                                              ; preds = %107
  %114 = load ptr, ptr %0, align 8, !tbaa !3
  %115 = getelementptr inbounds nuw i8, ptr %3, i64 16
  store ptr %114, ptr %115, align 8, !tbaa !33
  %116 = load i64, ptr %111, align 8, !tbaa !34
  %117 = getelementptr inbounds nuw i8, ptr %114, i64 %116
  store ptr %117, ptr %0, align 8, !tbaa !3
  %.not39 = icmp eq ptr %117, %93
  %. = select i1 %.not39, i32 0, i32 -102
  br label %mbedtls_asn1_get_tag.exit.thread

mbedtls_asn1_get_tag.exit.thread:                 ; preds = %96, %90, %84, %24, %62, %45, %33, %26, %12, %10, %4, %113, %107, %mbedtls_asn1_get_tag.exit42, %106
  %.0 = phi i32 [ 0, %106 ], [ %99, %mbedtls_asn1_get_tag.exit42 ], [ %112, %107 ], [ %., %113 ], [ -100, %24 ], [ -96, %62 ], [ -96, %45 ], [ -96, %33 ], [ -96, %26 ], [ -96, %12 ], [ -98, %10 ], [ -96, %4 ], [ -96, %84 ], [ -98, %96 ], [ -96, %90 ]
  ret i32 %.0
}